(lp1
S'shahr'
p2
aS'akhar'
p3
aS'kharj'
p4
aS'siasi'
p5
aS'eqtes'
p6
aS'vrzsh'
p7
ag6
ag2
ag2
ag3
ag3
ag5
ag6
aS'gungn'
p8
ag5
ag3
ag8
ag4
ag2
ag2
ag2
ag8
ag5
ag2
aS'adabh'
p9
ag6
aS'shrst'
p10
ag4
ag4
ag4
ag3
ag5
ag6
ag6
ag4
aS'shari'
p11
ag10
aS'gozar'
p12
ag5
aS'elmif'
p13
ag4
ag2
aS'ejtem'
p14
aS'havad'
p15
ag11
ag3
ag6
ag5
ag2
ag4
ag4
ag3
ag15
ag6
ag3
ag3
ag4
ag9
ag4
ag5
ag3
aS'maqal'
p16
ag2
ag6
ag4
ag5
ag6
ag9
ag3
ag10
ag12
ag5
ag15
ag10
ag10
ag7
ag6
ag4
ag2
ag4
ag14
ag2
ag6
ag8
ag6
ag3
ag3
ag6
ag14
ag3
ag3
ag14
ag14
ag9
ag3
ag6
ag2
ag4
ag8
ag5
ag5
ag3
ag11
ag2
aS'elmfa'
p17
ag8
ag4
ag3
ag8
ag6
ag4
ag5
ag6
ag5
ag2
ag6
aS'nameh'
p18
ag6
ag4
ag2
ag6
ag8
ag3
ag7
ag8
ag5
ag15
ag2
ag13
ag14
ag12
ag6
ag4
ag4
ag3
ag5
ag14
ag7
ag7
ag7
ag10
ag6
ag13
ag3
ag5
ag5
ag2
ag7
ag7
ag7
ag7
ag8
ag5
ag3
ag6
ag8
ag4
ag4
ag8
ag7
ag7
ag14
ag7
ag4
ag5
ag14
ag4
ag14
ag8
ag12
ag5
ag11
ag5
ag3
ag8
ag6
ag15
ag5
ag7
ag3
ag2
ag9
ag5
ag12
ag3
ag6
ag3
ag4
ag4
ag4
ag2
ag2
a.