(lp1
S'shahr'
p2
aS'eqtes'
p3
aS'kharj'
p4
aS'maqal'
p5
ag3
aS'vrzsh'
p6
aS'akhar'
p7
ag2
ag2
ag7
ag7
aS'siasi'
p8
ag3
aS'gungn'
p9
ag8
ag7
ag9
ag4
ag2
ag3
ag2
aS'elmif'
p10
ag8
ag2
aS'adabh'
p11
ag3
ag9
ag4
ag4
ag4
aS'shari'
p12
ag8
ag3
ag3
ag4
ag3
aS'shrst'
p13
ag3
ag8
ag10
ag4
ag2
ag4
aS'havad'
p14
ag8
ag8
ag3
ag6
ag2
ag4
ag7
ag7
ag14
ag4
ag7
ag7
ag4
ag11
ag4
ag8
ag7
ag3
ag2
ag9
ag4
ag8
ag3
ag11
ag7
ag6
ag8
ag3
ag2
ag13
ag13
ag6
ag3
ag4
ag2
ag4
ag7
ag14
ag10
ag9
ag7
ag7
ag7
ag4
aS'ejtem'
p15
ag7
ag7
ag2
ag8
ag11
ag7
ag3
ag2
ag7
ag9
ag8
ag8
ag7
aS'elmfa'
p16
ag2
ag3
ag9
ag4
ag7
ag9
ag7
ag4
ag4
ag3
ag5
ag2
ag3
ag2
ag3
ag4
ag7
ag3
ag9
ag7
ag6
ag9
ag8
ag14
ag2
ag10
ag15
aS'nameh'
p17
ag3
ag4
ag4
ag7
ag8
ag15
ag6
ag6
ag6
ag9
ag3
ag10
ag7
ag8
ag8
ag2
ag8
ag6
ag6
ag7
ag8
ag7
ag7
ag3
ag9
ag4
ag4
ag9
ag6
ag6
ag15
ag16
ag8
ag8
ag15
ag4
ag9
ag9
aS'gozar'
p18
ag8
ag14
ag8
ag7
ag9
ag3
ag14
ag8
ag6
ag7
ag2
ag15
ag8
aS'jvarz'
p19
ag7
ag3
ag7
ag4
ag4
ag4
ag2
ag2
a.